target datalayout = "e-m:e-p270:32:32-p271:32:32-p272:64:64-i64:64-i128:128-f80:128-n8:16:32:64-S128"
target triple = "x86_64-pc-linux-gnu"

%struct.Wln_Ntk_t_ = type { ptr, ptr, i32, %struct.Vec_Int_t_, %struct.Vec_Int_t_, %struct.Vec_Int_t_, %struct.Vec_Int_t_, ptr, %struct.Vec_Int_t_, ptr, %struct.Vec_Int_t_, %struct.Vec_Int_t_, ptr, %struct.Vec_Str_t_, i32, %struct.Vec_Int_t_, %struct.Vec_Int_t_, %struct.Vec_Int_t_, %struct.Vec_Int_t_, %struct.Vec_Int_t_, %struct.Vec_Int_t_, %struct.Vec_Int_t_, %struct.Vec_Int_t_, ptr, [99 x i32], [99 x i32] }
%struct.Vec_Str_t_ = type { i32, i32, ptr }
%struct.Vec_Int_t_ = type { i32, i32, ptr }
%struct.Wln_Vec_t_ = type { i32, i32, %union.anon }
%union.anon = type { [1 x ptr] }

; Function Attrs: nounwind uwtable
define internal i32 @Wln_ObjFaninNum(ptr noundef %0, i32 noundef %1) #0 {
  %3 = alloca ptr, align 8
  %4 = alloca i32, align 4
  store ptr %0, ptr %3, align 8
  store i32 %1, ptr %4, align 4
  %5 = load ptr, ptr %3, align 8
  %6 = getelementptr inbounds %struct.Wln_Ntk_t_, ptr %5, i32 0, i32 7
  %7 = load ptr, ptr %6, align 8
  %8 = load i32, ptr %4, align 4
  %9 = sext i32 %8 to i64
  %10 = getelementptr inbounds %struct.Wln_Vec_t_, ptr %7, i64 %9
  %11 = getelementptr inbounds %struct.Wln_Vec_t_, ptr %10, i32 0, i32 1
  %12 = load i32, ptr %11, align 4
  ret i32 %12
}

; Function Attrs: nounwind uwtable
define void @Wln_ObjAddFanin(ptr noundef %0, i32 noundef %1, i32 noundef %2) #0 {
  %4 = alloca ptr, align 8
  %5 = alloca i32, align 4
  %6 = alloca i32, align 4
  %7 = alloca ptr, align 8
  %8 = alloca ptr, align 8
  store ptr %0, ptr %4, align 8
  store i32 %1, ptr %5, align 4
  store i32 %2, ptr %6, align 4
  %9 = load ptr, ptr %4, align 8
  %10 = getelementptr inbounds %struct.Wln_Ntk_t_, ptr %9, i32 0, i32 7
  %11 = load ptr, ptr %10, align 8
  %12 = load i32, ptr %5, align 4
  %13 = sext i32 %12 to i64
  %14 = getelementptr inbounds %struct.Wln_Vec_t_, ptr %11, i64 %13
  store ptr %14, ptr %7, align 8
  %15 = load ptr, ptr %4, align 8
  %16 = load i32, ptr %5, align 4
  %17 = call i32 @Wln_ObjFaninNum(ptr noundef %15, i32 noundef %16)
  %18 = icmp slt i32 %17, 2
  br i1 %18, label %19, label %29

19:                                               ; preds = %3
  %20 = load i32, ptr %6, align 4
  %21 = load ptr, ptr %7, align 8
  %22 = getelementptr inbounds %struct.Wln_Vec_t_, ptr %21, i32 0, i32 2
  %23 = load ptr, ptr %7, align 8
  %24 = getelementptr inbounds %struct.Wln_Vec_t_, ptr %23, i32 0, i32 1
  %25 = load i32, ptr %24, align 4
  %26 = add nsw i32 %25, 1
  store i32 %26, ptr %24, align 4
  %27 = sext i32 %25 to i64
  %28 = getelementptr inbounds [2 x i32], ptr %22, i64 0, i64 %27
  store i32 %20, ptr %28, align 4
  br label %115

29:                                               ; preds = %3
  %30 = load ptr, ptr %4, align 8
  %31 = load i32, ptr %5, align 4
  %32 = call i32 @Wln_ObjFaninNum(ptr noundef %30, i32 noundef %31)
  %33 = icmp eq i32 %32, 2
  br i1 %33, label %34, label %59

34:                                               ; preds = %29
  %35 = call noalias ptr @malloc(i64 noundef 16) #7
  store ptr %35, ptr %8, align 8
  %36 = load ptr, ptr %7, align 8
  %37 = getelementptr inbounds %struct.Wln_Vec_t_, ptr %36, i32 0, i32 2
  %38 = getelementptr inbounds [2 x i32], ptr %37, i64 0, i64 0
  %39 = load i32, ptr %38, align 8
  %40 = load ptr, ptr %8, align 8
  %41 = getelementptr inbounds i32, ptr %40, i64 0
  store i32 %39, ptr %41, align 4
  %42 = load ptr, ptr %7, align 8
  %43 = getelementptr inbounds %struct.Wln_Vec_t_, ptr %42, i32 0, i32 2
  %44 = getelementptr inbounds [2 x i32], ptr %43, i64 0, i64 1
  %45 = load i32, ptr %44, align 4
  %46 = load ptr, ptr %8, align 8
  %47 = getelementptr inbounds i32, ptr %46, i64 1
  store i32 %45, ptr %47, align 4
  %48 = load i32, ptr %6, align 4
  %49 = load ptr, ptr %8, align 8
  %50 = getelementptr inbounds i32, ptr %49, i64 2
  store i32 %48, ptr %50, align 4
  %51 = load ptr, ptr %8, align 8
  %52 = load ptr, ptr %7, align 8
  %53 = getelementptr inbounds %struct.Wln_Vec_t_, ptr %52, i32 0, i32 2
  %54 = getelementptr inbounds [1 x ptr], ptr %53, i64 0, i64 0
  store ptr %51, ptr %54, align 8
  %55 = load ptr, ptr %7, align 8
  %56 = getelementptr inbounds %struct.Wln_Vec_t_, ptr %55, i32 0, i32 1
  store i32 3, ptr %56, align 4
  %57 = load ptr, ptr %7, align 8
  %58 = getelementptr inbounds %struct.Wln_Vec_t_, ptr %57, i32 0, i32 0
  store i32 4, ptr %58, align 8
  br label %114

59:                                               ; preds = %29
  %60 = load ptr, ptr %7, align 8
  %61 = getelementptr inbounds %struct.Wln_Vec_t_, ptr %60, i32 0, i32 1
  %62 = load i32, ptr %61, align 4
  %63 = load ptr, ptr %7, align 8
  %64 = getelementptr inbounds %struct.Wln_Vec_t_, ptr %63, i32 0, i32 0
  %65 = load i32, ptr %64, align 8
  %66 = icmp eq i32 %62, %65
  br i1 %66, label %67, label %102

67:                                               ; preds = %59
  %68 = load ptr, ptr %7, align 8
  %69 = getelementptr inbounds %struct.Wln_Vec_t_, ptr %68, i32 0, i32 2
  %70 = getelementptr inbounds [1 x ptr], ptr %69, i64 0, i64 0
  %71 = load ptr, ptr %70, align 8
  %72 = icmp ne ptr %71, null
  br i1 %72, label %73, label %87

73:                                               ; preds = %67
  %74 = load ptr, ptr %7, align 8
  %75 = getelementptr inbounds %struct.Wln_Vec_t_, ptr %74, i32 0, i32 2
  %76 = getelementptr inbounds [1 x ptr], ptr %75, i64 0, i64 0
  %77 = load ptr, ptr %76, align 8
  %78 = load ptr, ptr %7, align 8
  %79 = getelementptr inbounds %struct.Wln_Vec_t_, ptr %78, i32 0, i32 1
  %80 = load i32, ptr %79, align 4
  %81 = mul nsw i32 2, %80
  %82 = load ptr, ptr %7, align 8
  %83 = getelementptr inbounds %struct.Wln_Vec_t_, ptr %82, i32 0, i32 0
  store i32 %81, ptr %83, align 8
  %84 = sext i32 %81 to i64
  %85 = mul i64 4, %84
  %86 = call ptr @realloc(ptr noundef %77, i64 noundef %85) #8
  br label %97

87:                                               ; preds = %67
  %88 = load ptr, ptr %7, align 8
  %89 = getelementptr inbounds %struct.Wln_Vec_t_, ptr %88, i32 0, i32 1
  %90 = load i32, ptr %89, align 4
  %91 = mul nsw i32 2, %90
  %92 = load ptr, ptr %7, align 8
  %93 = getelementptr inbounds %struct.Wln_Vec_t_, ptr %92, i32 0, i32 0
  store i32 %91, ptr %93, align 8
  %94 = sext i32 %91 to i64
  %95 = mul i64 4, %94
  %96 = call noalias ptr @malloc(i64 noundef %95) #7
  br label %97

97:                                               ; preds = %87, %73
  %98 = phi ptr [ %86, %73 ], [ %96, %87 ]
  %99 = load ptr, ptr %7, align 8
  %100 = getelementptr inbounds %struct.Wln_Vec_t_, ptr %99, i32 0, i32 2
  %101 = getelementptr inbounds [1 x ptr], ptr %100, i64 0, i64 0
  store ptr %98, ptr %101, align 8
  br label %102

102:                                              ; preds = %97, %59
  %103 = load i32, ptr %6, align 4
  %104 = load ptr, ptr %7, align 8
  %105 = getelementptr inbounds %struct.Wln_Vec_t_, ptr %104, i32 0, i32 2
  %106 = getelementptr inbounds [1 x ptr], ptr %105, i64 0, i64 0
  %107 = load ptr, ptr %106, align 8
  %108 = load ptr, ptr %7, align 8
  %109 = getelementptr inbounds %struct.Wln_Vec_t_, ptr %108, i32 0, i32 1
  %110 = load i32, ptr %109, align 4
  %111 = add nsw i32 %110, 1
  store i32 %111, ptr %109, align 4
  %112 = sext i32 %110 to i64
  %113 = getelementptr inbounds i32, ptr %107, i64 %112
  store i32 %103, ptr %113, align 4
  br label %114

114:                                              ; preds = %102, %34
  br label %115

115:                                              ; preds = %114, %19
  ret void
}

; Function Attrs: nounwind uwtable
define internal i32 @Vec_IntEntry(ptr noundef %0, i32 noundef %1) #0 {
  %3 = alloca ptr, align 8
  %4 = alloca i32, align 4
  store ptr %0, ptr %3, align 8
  store i32 %1, ptr %4, align 4
  %5 = load ptr, ptr %3, align 8
  %6 = getelementptr inbounds %struct.Vec_Int_t_, ptr %5, i32 0, i32 2
  %7 = load ptr, ptr %6, align 8
  %8 = load i32, ptr %4, align 4
  %9 = sext i32 %8 to i64
  %10 = getelementptr inbounds i32, ptr %7, i64 %9
  %11 = load i32, ptr %10, align 4
  ret i32 %11
}

; Function Attrs: nounwind uwtable
define internal i32 @Vec_IntSize(ptr noundef %0) #0 {
  %2 = alloca ptr, align 8
  store ptr %0, ptr %2, align 8
  %3 = load ptr, ptr %2, align 8
  %4 = getelementptr inbounds %struct.Vec_Int_t_, ptr %3, i32 0, i32 1
  %5 = load i32, ptr %4, align 4
  ret i32 %5
}

; Function Attrs: nounwind uwtable
define i32 @Wln_ObjAddFanins(ptr noundef %0, i32 noundef %1, ptr noundef %2) #0 {
  %4 = alloca ptr, align 8
  %5 = alloca i32, align 4
  %6 = alloca ptr, align 8
  %7 = alloca i32, align 4
  %8 = alloca i32, align 4
  store ptr %0, ptr %4, align 8
  store i32 %1, ptr %5, align 4
  store ptr %2, ptr %6, align 8
  store i32 0, ptr %7, align 4
  br label %9

9:                                                ; preds = %24, %3
  %10 = load i32, ptr %7, align 4
  %11 = load ptr, ptr %6, align 8
  %12 = call i32 @Vec_IntSize(ptr noundef %11)
  %13 = icmp slt i32 %10, %12
  br i1 %13, label %14, label %18

14:                                               ; preds = %9
  %15 = load ptr, ptr %6, align 8
  %16 = load i32, ptr %7, align 4
  %17 = call i32 @Vec_IntEntry(ptr noundef %15, i32 noundef %16)
  store i32 %17, ptr %8, align 4
  br label %18

18:                                               ; preds = %14, %9
  %19 = phi i1 [ false, %9 ], [ true, %14 ]
  br i1 %19, label %20, label %27

20:                                               ; preds = %18
  %21 = load ptr, ptr %4, align 8
  %22 = load i32, ptr %5, align 4
  %23 = load i32, ptr %8, align 4
  call void @Wln_ObjAddFanin(ptr noundef %21, i32 noundef %22, i32 noundef %23)
  br label %24

24:                                               ; preds = %20
  %25 = load i32, ptr %7, align 4
  %26 = add nsw i32 %25, 1
  store i32 %26, ptr %7, align 4
  br label %9, !llvm.loop !4

27:                                               ; preds = %18
  %28 = load i32, ptr %5, align 4
  ret i32 %28
}