; Function Attrs: nounwind uwtable
define noundef i32 @Wln_ObjAddFanins(ptr noundef readonly captures(none) %0, i32 noundef returned %1, ptr noundef readonly captures(none) %2) local_unnamed_addr #0 {
  %4 = getelementptr i8, ptr %2, i64 4
  %.val9 = load i32, ptr %4, align 4
  %5 = icmp sgt i32 %.val9, 0
  br i1 %5, label %.lr.ph, label %.critedge

.lr.ph:                                           ; preds = %3
  %6 = getelementptr i8, ptr %2, i64 8
  %7 = getelementptr inbounds nuw i8, ptr %0, i64 88
  %8 = sext i32 %1 to i64
  br label %9

9:                                                ; preds = %.lr.ph, %Wln_ObjAddFanin.exit
  %indvars.iv = phi i64 [ 0, %.lr.ph ], [ %indvars.iv.next, %Wln_ObjAddFanin.exit ]
  %.val8 = load ptr, ptr %6, align 8
  %10 = getelementptr inbounds nuw i32, ptr %.val8, i64 %indvars.iv
  %11 = load i32, ptr %10, align 4
  %12 = load ptr, ptr %7, align 8
  %13 = getelementptr inbounds %struct.Wln_Vec_t_, ptr %12, i64 %8
  %14 = getelementptr inbounds %struct.Wln_Vec_t_, ptr %12, i64 %8, i32 1
  %15 = load i32, ptr %14, align 4
  %16 = icmp slt i32 %15, 2
  br i1 %16, label %17, label %23

17:                                               ; preds = %9
  %18 = getelementptr inbounds nuw i8, ptr %13, i64 8
  %19 = getelementptr inbounds nuw i8, ptr %13, i64 4
  %20 = add nsw i32 %15, 1
  store i32 %20, ptr %19, align 4
  %21 = sext i32 %15 to i64
  %22 = getelementptr inbounds [2 x i32], ptr %18, i64 0, i64 %21
  store i32 %11, ptr %22, align 4
  br label %Wln_ObjAddFanin.exit

23:                                               ; preds = %9
  %24 = icmp eq i32 %15, 2
  br i1 %24, label %25, label %34

25:                                               ; preds = %23
  %26 = tail call noalias dereferenceable_or_null(16) ptr @malloc(i64 noundef 16) #13
  %27 = getelementptr inbounds nuw i8, ptr %13, i64 8
  %28 = load i32, ptr %27, align 8
  store i32 %28, ptr %26, align 4
  %29 = getelementptr inbounds nuw i8, ptr %13, i64 12
  %30 = load i32, ptr %29, align 4
  %31 = getelementptr inbounds nuw i8, ptr %26, i64 4
  store i32 %30, ptr %31, align 4
  %32 = getelementptr inbounds nuw i8, ptr %26, i64 8
  store i32 %11, ptr %32, align 4
  store ptr %26, ptr %27, align 8
  %33 = getelementptr inbounds nuw i8, ptr %13, i64 4
  store i32 3, ptr %33, align 4
  store i32 4, ptr %13, align 8
  br label %Wln_ObjAddFanin.exit

34:                                               ; preds = %23
  %35 = getelementptr inbounds nuw i8, ptr %13, i64 4
  %36 = load i32, ptr %13, align 8
  %37 = icmp eq i32 %15, %36
  %38 = getelementptr inbounds nuw i8, ptr %13, i64 8
  %39 = load ptr, ptr %38, align 8
  br i1 %37, label %40, label %._crit_edge.i

40:                                               ; preds = %34
  %.not.i = icmp eq ptr %39, null
  %41 = shl nuw nsw i32 %15, 1
  store i32 %41, ptr %13, align 8
  %42 = zext nneg i32 %41 to i64
  %43 = shl nuw nsw i64 %42, 2
  br i1 %.not.i, label %46, label %44

44:                                               ; preds = %40
  %45 = tail call ptr @realloc(ptr noundef nonnull %39, i64 noundef %43) #14
  %.pre32.pre.i = load i32, ptr %35, align 4
  br label %48

46:                                               ; preds = %40
  %47 = tail call noalias ptr @malloc(i64 noundef %43) #13
  br label %48

48:                                               ; preds = %46, %44
  %.pre32.i = phi i32 [ %.pre32.pre.i, %44 ], [ %15, %46 ]
  %49 = phi ptr [ %45, %44 ], [ %47, %46 ]
  store ptr %49, ptr %38, align 8
  br label %._crit_edge.i

._crit_edge.i:                                    ; preds = %48, %34
  %50 = phi i32 [ %.pre32.i, %48 ], [ %15, %34 ]
  %51 = phi ptr [ %49, %48 ], [ %39, %34 ]
  %52 = add nsw i32 %50, 1
  store i32 %52, ptr %35, align 4
  %53 = sext i32 %50 to i64
  %54 = getelementptr inbounds i32, ptr %51, i64 %53
  store i32 %11, ptr %54, align 4
  br label %Wln_ObjAddFanin.exit

Wln_ObjAddFanin.exit:                             ; preds = %17, %25, %._crit_edge.i
  %indvars.iv.next = add nuw nsw i64 %indvars.iv, 1
  %.val = load i32, ptr %4, align 4
  %55 = sext i32 %.val to i64
  %56 = icmp slt i64 %indvars.iv.next, %55
  br i1 %56, label %9, label %.critedge, !llvm.loop !4

.critedge:                                        ; preds = %Wln_ObjAddFanin.exit, %3
  ret i32 %1
}